; Function Attrs: mustprogress nofree norecurse nosync nounwind willreturn memory(none) uwtable
define dso_local noundef ptr @_ZN4llvm5RISCV19getMaskedPseudoInfoEj(i32 noundef %0) local_unnamed_addr #4 {
_ZSt7advanceIPKN4llvm5RISCV21RISCVMaskedPseudoInfoElEvRT_T0_.exit.preheader.i.i:
  br label %_ZSt7advanceIPKN4llvm5RISCV21RISCVMaskedPseudoInfoElEvRT_T0_.exit.i.i

_ZSt7advanceIPKN4llvm5RISCV21RISCVMaskedPseudoInfoElEvRT_T0_.exit.i.i: ; preds = %_ZSt7advanceIPKN4llvm5RISCV21RISCVMaskedPseudoInfoElEvRT_T0_.exit.i.i, %_ZSt7advanceIPKN4llvm5RISCV21RISCVMaskedPseudoInfoElEvRT_T0_.exit.preheader.i.i
  %.05.i.i = phi ptr [ %.1.i.i, %_ZSt7advanceIPKN4llvm5RISCV21RISCVMaskedPseudoInfoElEvRT_T0_.exit.i.i ], [ @_ZN4llvm5RISCVL23RISCVMaskedPseudosTableE, %_ZSt7advanceIPKN4llvm5RISCV21RISCVMaskedPseudoInfoElEvRT_T0_.exit.preheader.i.i ]
  %.0114.i.i = phi i64 [ %.112.i.i, %_ZSt7advanceIPKN4llvm5RISCV21RISCVMaskedPseudoInfoElEvRT_T0_.exit.i.i ], [ 3213, %_ZSt7advanceIPKN4llvm5RISCV21RISCVMaskedPseudoInfoElEvRT_T0_.exit.preheader.i.i ]
  %1 = lshr i64 %.0114.i.i, 1
  %2 = getelementptr inbounds %"struct.llvm::RISCV::RISCVMaskedPseudoInfo", ptr %.05.i.i, i64 %1
  %.val.i.i = load i16, ptr %2, align 2
  %3 = zext i16 %.val.i.i to i32
  %4 = icmp ugt i32 %0, %3
  %5 = getelementptr inbounds i8, ptr %2, i64 6
  %6 = xor i64 %1, -1
  %7 = add nsw i64 %.0114.i.i, %6
  %.112.i.i = select i1 %4, i64 %7, i64 %1
  %.1.i.i = select i1 %4, ptr %5, ptr %.05.i.i
  %8 = icmp sgt i64 %.112.i.i, 0
  br i1 %8, label %_ZSt7advanceIPKN4llvm5RISCV21RISCVMaskedPseudoInfoElEvRT_T0_.exit.i.i, label %_ZSt11lower_boundIPKN4llvm5RISCV21RISCVMaskedPseudoInfoEZNS1_19getMaskedPseudoInfoEjE7KeyTypeZNS1_19getMaskedPseudoInfoEjE4CompET_S7_S7_RKT0_T1_.exit, !llvm.loop !6

_ZSt11lower_boundIPKN4llvm5RISCV21RISCVMaskedPseudoInfoEZNS1_19getMaskedPseudoInfoEjE7KeyTypeZNS1_19getMaskedPseudoInfoEjE4CompET_S7_S7_RKT0_T1_.exit: ; preds = %_ZSt7advanceIPKN4llvm5RISCV21RISCVMaskedPseudoInfoElEvRT_T0_.exit.i.i
  %9 = icmp eq ptr %.1.i.i, getelementptr inbounds (i8, ptr @_ZN4llvm5RISCVL23RISCVMaskedPseudosTableE, i64 19278)
  br i1 %9, label %13, label %10

10:                                               ; preds = %_ZSt11lower_boundIPKN4llvm5RISCV21RISCVMaskedPseudoInfoEZNS1_19getMaskedPseudoInfoEjE7KeyTypeZNS1_19getMaskedPseudoInfoEjE4CompET_S7_S7_RKT0_T1_.exit
  %11 = load i16, ptr %.1.i.i, align 2
  %12 = zext i16 %11 to i32
  %.not = icmp eq i32 %0, %12
  %spec.select = select i1 %.not, ptr %.1.i.i, ptr null
  br label %13

13:                                               ; preds = %10, %_ZSt11lower_boundIPKN4llvm5RISCV21RISCVMaskedPseudoInfoEZNS1_19getMaskedPseudoInfoEjE7KeyTypeZNS1_19getMaskedPseudoInfoEjE4CompET_S7_S7_RKT0_T1_.exit
  %.0 = phi ptr [ null, %_ZSt11lower_boundIPKN4llvm5RISCV21RISCVMaskedPseudoInfoEZNS1_19getMaskedPseudoInfoEjE7KeyTypeZNS1_19getMaskedPseudoInfoEjE4CompET_S7_S7_RKT0_T1_.exit ], [ %spec.select, %10 ]
  ret ptr %.0
}